target datalayout = "e-m:e-p270:32:32-p271:32:32-p272:64:64-i64:64-i128:128-f80:128-n8:16:32:64-S128"
target triple = "x86_64-pc-linux-gnu"

%"class.rocksdb::Cleanable" = type { %"struct.rocksdb::Cleanable::Cleanup" }
%"struct.rocksdb::Cleanable::Cleanup" = type { ptr, ptr, ptr, ptr }

; Function Attrs: mustprogress uwtable
define void @_ZN7rocksdb9Cleanable15RegisterCleanupEPFvPvS1_ES1_S1_(ptr noundef nonnull align 8 dereferenceable(32) %0, ptr noundef %1, ptr noundef %2, ptr noundef %3) #4 align 2 {
  %5 = alloca ptr, align 8
  %6 = alloca ptr, align 8
  %7 = alloca ptr, align 8
  %8 = alloca ptr, align 8
  %9 = alloca ptr, align 8
  store ptr %0, ptr %5, align 8, !tbaa !4
  store ptr %1, ptr %6, align 8, !tbaa !24
  store ptr %2, ptr %7, align 8, !tbaa !24
  store ptr %3, ptr %8, align 8, !tbaa !24
  %10 = load ptr, ptr %5, align 8
  call void @llvm.lifetime.start.p0(i64 8, ptr %9) #11
  %11 = getelementptr inbounds nuw %"class.rocksdb::Cleanable", ptr %10, i32 0, i32 0
  %12 = getelementptr inbounds nuw %"struct.rocksdb::Cleanable::Cleanup", ptr %11, i32 0, i32 0
  %13 = load ptr, ptr %12, align 8, !tbaa !9
  %14 = icmp eq ptr %13, null
  br i1 %14, label %15, label %17

15:                                               ; preds = %4
  %16 = getelementptr inbounds nuw %"class.rocksdb::Cleanable", ptr %10, i32 0, i32 0
  store ptr %16, ptr %9, align 8, !tbaa !16
  br label %27

17:                                               ; preds = %4
  %18 = call noalias noundef nonnull ptr @_Znwm(i64 noundef 32) #14
  store ptr %18, ptr %9, align 8, !tbaa !16
  %19 = getelementptr inbounds nuw %"class.rocksdb::Cleanable", ptr %10, i32 0, i32 0
  %20 = getelementptr inbounds nuw %"struct.rocksdb::Cleanable::Cleanup", ptr %19, i32 0, i32 3
  %21 = load ptr, ptr %20, align 8, !tbaa !13
  %22 = load ptr, ptr %9, align 8, !tbaa !16
  %23 = getelementptr inbounds nuw %"struct.rocksdb::Cleanable::Cleanup", ptr %22, i32 0, i32 3
  store ptr %21, ptr %23, align 8, !tbaa !20
  %24 = load ptr, ptr %9, align 8, !tbaa !16
  %25 = getelementptr inbounds nuw %"class.rocksdb::Cleanable", ptr %10, i32 0, i32 0
  %26 = getelementptr inbounds nuw %"struct.rocksdb::Cleanable::Cleanup", ptr %25, i32 0, i32 3
  store ptr %24, ptr %26, align 8, !tbaa !13
  br label %27

27:                                               ; preds = %17, %15
  %28 = load ptr, ptr %6, align 8, !tbaa !24
  %29 = load ptr, ptr %9, align 8, !tbaa !16
  %30 = getelementptr inbounds nuw %"struct.rocksdb::Cleanable::Cleanup", ptr %29, i32 0, i32 0
  store ptr %28, ptr %30, align 8, !tbaa !17
  %31 = load ptr, ptr %7, align 8, !tbaa !24
  %32 = load ptr, ptr %9, align 8, !tbaa !16
  %33 = getelementptr inbounds nuw %"struct.rocksdb::Cleanable::Cleanup", ptr %32, i32 0, i32 1
  store ptr %31, ptr %33, align 8, !tbaa !18
  %34 = load ptr, ptr %8, align 8, !tbaa !24
  %35 = load ptr, ptr %9, align 8, !tbaa !16
  %36 = getelementptr inbounds nuw %"struct.rocksdb::Cleanable::Cleanup", ptr %35, i32 0, i32 2
  store ptr %34, ptr %36, align 8, !tbaa !19
  call void @llvm.lifetime.end.p0(i64 8, ptr %9) #11
  ret void
}