; Function Attrs: mustprogress uwtable
define void @_ZN7rocksdb9Cleanable15RegisterCleanupEPFvPvS1_ES1_S1_(ptr noundef nonnull align 8 captures(none) dereferenceable(32) %0, ptr noundef %1, ptr noundef %2, ptr noundef %3) local_unnamed_addr #5 align 2 {
  %5 = load ptr, ptr %0, align 8, !tbaa !4
  %6 = icmp eq ptr %5, null
  br i1 %6, label %12, label %7

7:                                                ; preds = %4
  %8 = tail call noalias noundef nonnull dereferenceable(32) ptr @_Znwm(i64 noundef 32) #13
  %9 = getelementptr inbounds nuw i8, ptr %0, i64 24
  %10 = load ptr, ptr %9, align 8, !tbaa !11
  %11 = getelementptr inbounds nuw i8, ptr %8, i64 24
  store ptr %10, ptr %11, align 8, !tbaa !17
  store ptr %8, ptr %9, align 8, !tbaa !11
  br label %12

12:                                               ; preds = %4, %7
  %.0 = phi ptr [ %8, %7 ], [ %0, %4 ]
  store ptr %1, ptr %.0, align 8, !tbaa !18
  %13 = getelementptr inbounds nuw i8, ptr %.0, i64 8
  store ptr %2, ptr %13, align 8, !tbaa !15
  %14 = getelementptr inbounds nuw i8, ptr %.0, i64 16
  store ptr %3, ptr %14, align 8, !tbaa !16
  ret void
}